; Function Attrs: mustprogress uwtable
define dso_local noundef zeroext i1 @_ZNK13ArrayVariable19no_loop_initializerEv(ptr noundef nonnull align 8 dereferenceable(288) %0) local_unnamed_addr #3 align 2 {
  %2 = getelementptr inbounds i8, ptr %0, i64 64
  %3 = load ptr, ptr %2, align 8
  %4 = load i32, ptr %3, align 8
  %5 = and i32 %4, -2
  %switch = icmp eq i32 %5, 2
  br i1 %switch, label %19, label %6

6:                                                ; preds = %1
  %7 = tail call noundef zeroext i1 @_ZNK8Variable8is_constEv(ptr noundef nonnull align 8 dereferenceable(200) %0)
  br i1 %7, label %19, label %8

8:                                                ; preds = %6
  %9 = load ptr, ptr %0, align 8
  %10 = getelementptr inbounds i8, ptr %9, i64 16
  %11 = load ptr, ptr %10, align 8
  %12 = tail call noundef zeroext i1 %11(ptr noundef nonnull align 8 dereferenceable(288) %0)
  br i1 %12, label %19, label %13

13:                                               ; preds = %8
  %14 = getelementptr inbounds i8, ptr %0, i64 264
  %15 = getelementptr inbounds i8, ptr %0, i64 272
  %16 = load ptr, ptr %15, align 8
  %17 = load ptr, ptr %14, align 8
  %18 = icmp ne ptr %16, %17
  br label %19

19:                                               ; preds = %1, %13, %8, %6
  %20 = phi i1 [ true, %8 ], [ true, %6 ], [ %18, %13 ], [ true, %1 ]
  ret i1 %20
}